; Function Attrs: mustprogress uwtable
define void @_ZN7rocksdb18TestFSRandomRWFile4SyncERKNS_9IOOptionsEPNS_14IODebugContextE(ptr noalias sret(%"class.rocksdb::IOStatus") align 8 %agg.result, ptr nocapture noundef nonnull readonly align 8 dereferenceable(32) %this, ptr noundef nonnull align 8 dereferenceable(83) %options, ptr noundef %dbg) unnamed_addr #2 align 2 personality ptr @__gxx_personality_v0 {
entry:
  %fs_ = getelementptr inbounds i8, ptr %this, i64 24
  %0 = load ptr, ptr %fs_, align 8
  %mutex_.i = getelementptr inbounds i8, ptr %0, i64 48
  tail call void @_ZN7rocksdb4port5Mutex4LockEv(ptr noundef nonnull align 8 dereferenceable(40) %mutex_.i)
  %filesystem_active_.i = getelementptr inbounds i8, ptr %0, i64 240
  %1 = load i8, ptr %filesystem_active_.i, align 8
  invoke void @_ZN7rocksdb4port5Mutex6UnlockEv(ptr noundef nonnull align 8 dereferenceable(40) %mutex_.i)
          to label %_ZN7rocksdb20FaultInjectionTestFS18IsFilesystemActiveEv.exit unwind label %terminate.lpad.i.i

terminate.lpad.i.i:                               ; preds = %entry
  %2 = landingpad { ptr, i32 }
          catch ptr null
  %3 = extractvalue { ptr, i32 } %2, 0
  tail call void @__clang_call_terminate(ptr %3) #23
  unreachable

_ZN7rocksdb20FaultInjectionTestFS18IsFilesystemActiveEv.exit: ; preds = %entry
  %4 = and i8 %1, 1
  %tobool.i.not = icmp eq i8 %4, 0
  br i1 %tobool.i.not, label %if.then, label %if.end

if.then:                                          ; preds = %_ZN7rocksdb20FaultInjectionTestFS18IsFilesystemActiveEv.exit
  %5 = load ptr, ptr %fs_, align 8
  %error_.i = getelementptr inbounds i8, ptr %5, i64 248
  tail call void @_ZN7rocksdb8IOStatusC2ERKS0_(ptr noundef nonnull align 8 dereferenceable(16) %agg.result, ptr noundef nonnull align 8 dereferenceable(16) %error_.i)
  br label %return

if.end:                                           ; preds = %_ZN7rocksdb20FaultInjectionTestFS18IsFilesystemActiveEv.exit
  %target_ = getelementptr inbounds i8, ptr %this, i64 8
  %6 = load ptr, ptr %target_, align 8
  %vtable = load ptr, ptr %6, align 8
  %vfn = getelementptr inbounds i8, ptr %vtable, i64 56
  %7 = load ptr, ptr %vfn, align 8
  tail call void %7(ptr sret(%"class.rocksdb::IOStatus") align 8 %agg.result, ptr noundef nonnull align 8 dereferenceable(8) %6, ptr noundef nonnull align 8 dereferenceable(83) %options, ptr noundef %dbg)
  br label %return

return:                                           ; preds = %if.end, %if.then
  ret void
}